target datalayout = "e-m:e-p270:32:32-p271:32:32-p272:64:64-i64:64-i128:128-f80:128-n8:16:32:64-S128"
target triple = "x86_64-pc-linux-gnu"

@stderr = external global ptr, align 8
@.str.19 = private unnamed_addr constant [24 x i8] c"Failed to allocate ctx\0A\00", align 1
@.str.20 = private unnamed_addr constant [30 x i8] c"Failed to init encap context\0A\00", align 1
@.str.21 = private unnamed_addr constant [27 x i8] c"Failed to encapsulate key\0A\00", align 1
@.str.22 = private unnamed_addr constant [26 x i8] c"Failed to create context\0A\00", align 1
@.str.23 = private unnamed_addr constant [22 x i8] c"Failed to init decap\0A\00", align 1
@.str.24 = private unnamed_addr constant [21 x i8] c"Failed to decap key\0A\00", align 1
@.str.25 = private unnamed_addr constant [31 x i8] c"mismatch on secret comparison\0A\00", align 1

; Function Attrs: nounwind uwtable
define internal void @mlkem_encap_decap(ptr noundef %0, ptr noundef %1, ptr noundef %2, ptr noundef %3, ptr noundef %4, ptr noundef %5) #0 {
  %7 = alloca ptr, align 8
  %8 = alloca ptr, align 8
  %9 = alloca ptr, align 8
  %10 = alloca ptr, align 8
  %11 = alloca ptr, align 8
  %12 = alloca ptr, align 8
  %13 = alloca ptr, align 8
  %14 = alloca ptr, align 8
  %15 = alloca [32 x i8], align 16
  %16 = alloca i64, align 8
  %17 = alloca [32 x i8], align 16
  %18 = alloca i64, align 8
  %19 = alloca [1568 x i8], align 16
  %20 = alloca i64, align 8
  store ptr %0, ptr %7, align 8, !tbaa !23
  store ptr %1, ptr %8, align 8, !tbaa !21
  store ptr %2, ptr %9, align 8, !tbaa !15
  store ptr %3, ptr %10, align 8, !tbaa !15
  store ptr %4, ptr %11, align 8, !tbaa !15
  store ptr %5, ptr %12, align 8, !tbaa !15
  call void @llvm.lifetime.start.p0(i64 8, ptr %13) #7
  %21 = load ptr, ptr %9, align 8, !tbaa !15
  store ptr %21, ptr %13, align 8, !tbaa !27
  call void @llvm.lifetime.start.p0(i64 8, ptr %14) #7
  call void @llvm.lifetime.start.p0(i64 32, ptr %15) #7
  call void @llvm.lifetime.start.p0(i64 8, ptr %16) #7
  store i64 32, ptr %16, align 8, !tbaa !13
  call void @llvm.lifetime.start.p0(i64 32, ptr %17) #7
  call void @llvm.lifetime.start.p0(i64 8, ptr %18) #7
  store i64 32, ptr %18, align 8, !tbaa !13
  call void @llvm.lifetime.start.p0(i64 1568, ptr %19) #7
  call void @llvm.lifetime.start.p0(i64 8, ptr %20) #7
  store i64 1568, ptr %20, align 8, !tbaa !13
  %22 = load ptr, ptr %13, align 8, !tbaa !27
  %23 = call ptr @EVP_PKEY_CTX_new_from_pkey(ptr noundef null, ptr noundef %22, ptr noundef null)
  store ptr %23, ptr %14, align 8, !tbaa !29
  %24 = load ptr, ptr %14, align 8, !tbaa !29
  %25 = icmp eq ptr %24, null
  br i1 %25, label %26, label %29

26:                                               ; preds = %6
  %27 = load ptr, ptr @stderr, align 8, !tbaa !33
  %28 = call i32 (ptr, ptr, ...) @fprintf(ptr noundef %27, ptr noundef @.str.19) #7
  br label %88

29:                                               ; preds = %6
  %30 = load ptr, ptr %14, align 8, !tbaa !29
  %31 = call i32 @EVP_PKEY_encapsulate_init(ptr noundef %30, ptr noundef null)
  %32 = icmp ne i32 %31, 0
  br i1 %32, label %36, label %33

33:                                               ; preds = %29
  %34 = load ptr, ptr @stderr, align 8, !tbaa !33
  %35 = call i32 (ptr, ptr, ...) @fprintf(ptr noundef %34, ptr noundef @.str.20) #7
  br label %88

36:                                               ; preds = %29
  %37 = getelementptr inbounds [32 x i8], ptr %15, i64 0, i64 0
  %38 = load i64, ptr %16, align 8, !tbaa !13
  %39 = trunc i64 %38 to i32
  %40 = call i32 @RAND_bytes(ptr noundef %37, i32 noundef %39)
  %41 = icmp ne i32 %40, 0
  br i1 %41, label %43, label %42

42:                                               ; preds = %36
  br label %88

43:                                               ; preds = %36
  %44 = load ptr, ptr %14, align 8, !tbaa !29
  %45 = getelementptr inbounds [1568 x i8], ptr %19, i64 0, i64 0
  %46 = getelementptr inbounds [32 x i8], ptr %15, i64 0, i64 0
  %47 = call i32 @EVP_PKEY_encapsulate(ptr noundef %44, ptr noundef %45, ptr noundef %20, ptr noundef %46, ptr noundef %16)
  %48 = icmp sle i32 %47, 0
  br i1 %48, label %49, label %52

49:                                               ; preds = %43
  %50 = load ptr, ptr @stderr, align 8, !tbaa !33
  %51 = call i32 (ptr, ptr, ...) @fprintf(ptr noundef %50, ptr noundef @.str.21) #7
  br label %88

52:                                               ; preds = %43
  %53 = load ptr, ptr %14, align 8, !tbaa !29
  call void @EVP_PKEY_CTX_free(ptr noundef %53)
  %54 = load ptr, ptr %13, align 8, !tbaa !27
  %55 = call ptr @EVP_PKEY_CTX_new_from_pkey(ptr noundef null, ptr noundef %54, ptr noundef null)
  store ptr %55, ptr %14, align 8, !tbaa !29
  %56 = load ptr, ptr %14, align 8, !tbaa !29
  %57 = icmp eq ptr %56, null
  br i1 %57, label %58, label %61

58:                                               ; preds = %52
  %59 = load ptr, ptr @stderr, align 8, !tbaa !33
  %60 = call i32 (ptr, ptr, ...) @fprintf(ptr noundef %59, ptr noundef @.str.22) #7
  br label %88

61:                                               ; preds = %52
  %62 = load ptr, ptr %14, align 8, !tbaa !29
  %63 = call i32 @EVP_PKEY_decapsulate_init(ptr noundef %62, ptr noundef null)
  %64 = icmp ne i32 %63, 0
  br i1 %64, label %68, label %65

65:                                               ; preds = %61
  %66 = load ptr, ptr @stderr, align 8, !tbaa !33
  %67 = call i32 (ptr, ptr, ...) @fprintf(ptr noundef %66, ptr noundef @.str.23) #7
  br label %88

68:                                               ; preds = %61
  %69 = load ptr, ptr %14, align 8, !tbaa !29
  %70 = getelementptr inbounds [32 x i8], ptr %17, i64 0, i64 0
  %71 = getelementptr inbounds [1568 x i8], ptr %19, i64 0, i64 0
  %72 = load i64, ptr %20, align 8, !tbaa !13
  %73 = call i32 @EVP_PKEY_decapsulate(ptr noundef %69, ptr noundef %70, ptr noundef %18, ptr noundef %71, i64 noundef %72)
  %74 = icmp sle i32 %73, 0
  br i1 %74, label %75, label %78

75:                                               ; preds = %68
  %76 = load ptr, ptr @stderr, align 8, !tbaa !33
  %77 = call i32 (ptr, ptr, ...) @fprintf(ptr noundef %76, ptr noundef @.str.24) #7
  br label %88

78:                                               ; preds = %68
  %79 = getelementptr inbounds [32 x i8], ptr %17, i64 0, i64 0
  %80 = getelementptr inbounds [32 x i8], ptr %15, i64 0, i64 0
  %81 = load i64, ptr %16, align 8, !tbaa !13
  %82 = call i32 @memcmp(ptr noundef %79, ptr noundef %80, i64 noundef %81) #8
  %83 = icmp ne i32 %82, 0
  br i1 %83, label %84, label %87

84:                                               ; preds = %78
  %85 = load ptr, ptr @stderr, align 8, !tbaa !33
  %86 = call i32 (ptr, ptr, ...) @fprintf(ptr noundef %85, ptr noundef @.str.25) #7
  br label %87

87:                                               ; preds = %84, %78
  br label %88

88:                                               ; preds = %87, %75, %65, %58, %49, %42, %33, %26
  %89 = load ptr, ptr %14, align 8, !tbaa !29
  call void @EVP_PKEY_CTX_free(ptr noundef %89)
  call void @llvm.lifetime.end.p0(i64 8, ptr %20) #7
  call void @llvm.lifetime.end.p0(i64 1568, ptr %19) #7
  call void @llvm.lifetime.end.p0(i64 8, ptr %18) #7
  call void @llvm.lifetime.end.p0(i64 32, ptr %17) #7
  call void @llvm.lifetime.end.p0(i64 8, ptr %16) #7
  call void @llvm.lifetime.end.p0(i64 32, ptr %15) #7
  call void @llvm.lifetime.end.p0(i64 8, ptr %14) #7
  call void @llvm.lifetime.end.p0(i64 8, ptr %13) #7
  ret void
}