; Function Attrs: nounwind uwtable
define internal void @mlkem_encap_decap(ptr readnone captures(none) %0, ptr readnone captures(none) %1, ptr noundef %2, ptr readnone captures(none) %3, ptr readnone captures(none) %4, ptr readnone captures(none) %5) #1 {
  %7 = alloca [32 x i8], align 16
  %8 = alloca i64, align 8
  %9 = alloca [32 x i8], align 16
  %10 = alloca i64, align 8
  %11 = alloca [1568 x i8], align 16
  %12 = alloca i64, align 8
  call void @llvm.lifetime.start.p0(i64 32, ptr nonnull %7) #6
  call void @llvm.lifetime.start.p0(i64 8, ptr nonnull %8) #6
  store i64 32, ptr %8, align 8, !tbaa !9
  call void @llvm.lifetime.start.p0(i64 32, ptr nonnull %9) #6
  call void @llvm.lifetime.start.p0(i64 8, ptr nonnull %10) #6
  store i64 32, ptr %10, align 8, !tbaa !9
  call void @llvm.lifetime.start.p0(i64 1568, ptr nonnull %11) #6
  call void @llvm.lifetime.start.p0(i64 8, ptr nonnull %12) #6
  store i64 1568, ptr %12, align 8, !tbaa !9
  %13 = tail call ptr @EVP_PKEY_CTX_new_from_pkey(ptr noundef null, ptr noundef %2, ptr noundef null) #6
  %14 = icmp eq ptr %13, null
  br i1 %14, label %15, label %18

15:                                               ; preds = %6
  %16 = load ptr, ptr @stderr, align 8, !tbaa !16
  %17 = tail call i64 @fwrite(ptr nonnull @.str.19, i64 23, i64 1, ptr %16) #7
  br label %54

18:                                               ; preds = %6
  %19 = tail call i32 @EVP_PKEY_encapsulate_init(ptr noundef nonnull %13, ptr noundef null) #6
  %.not = icmp eq i32 %19, 0
  br i1 %.not, label %20, label %23

20:                                               ; preds = %18
  %21 = load ptr, ptr @stderr, align 8, !tbaa !16
  %22 = tail call i64 @fwrite(ptr nonnull @.str.20, i64 29, i64 1, ptr %21) #7
  br label %54

23:                                               ; preds = %18
  %24 = call i32 @RAND_bytes(ptr noundef nonnull %7, i32 noundef 32) #6
  %.not14 = icmp eq i32 %24, 0
  br i1 %.not14, label %54, label %25

25:                                               ; preds = %23
  %26 = call i32 @EVP_PKEY_encapsulate(ptr noundef nonnull %13, ptr noundef nonnull %11, ptr noundef nonnull %12, ptr noundef nonnull %7, ptr noundef nonnull %8) #6
  %27 = icmp slt i32 %26, 1
  br i1 %27, label %28, label %31

28:                                               ; preds = %25
  %29 = load ptr, ptr @stderr, align 8, !tbaa !16
  %30 = call i64 @fwrite(ptr nonnull @.str.21, i64 26, i64 1, ptr %29) #7
  br label %54

31:                                               ; preds = %25
  call void @EVP_PKEY_CTX_free(ptr noundef nonnull %13) #6
  %32 = call ptr @EVP_PKEY_CTX_new_from_pkey(ptr noundef null, ptr noundef %2, ptr noundef null) #6
  %33 = icmp eq ptr %32, null
  br i1 %33, label %34, label %37

34:                                               ; preds = %31
  %35 = load ptr, ptr @stderr, align 8, !tbaa !16
  %36 = call i64 @fwrite(ptr nonnull @.str.22, i64 25, i64 1, ptr %35) #7
  br label %54

37:                                               ; preds = %31
  %38 = call i32 @EVP_PKEY_decapsulate_init(ptr noundef nonnull %32, ptr noundef null) #6
  %.not15 = icmp eq i32 %38, 0
  br i1 %.not15, label %39, label %42

39:                                               ; preds = %37
  %40 = load ptr, ptr @stderr, align 8, !tbaa !16
  %41 = call i64 @fwrite(ptr nonnull @.str.23, i64 21, i64 1, ptr %40) #7
  br label %54

42:                                               ; preds = %37
  %43 = load i64, ptr %12, align 8, !tbaa !9
  %44 = call i32 @EVP_PKEY_decapsulate(ptr noundef nonnull %32, ptr noundef nonnull %9, ptr noundef nonnull %10, ptr noundef nonnull %11, i64 noundef %43) #6
  %45 = icmp slt i32 %44, 1
  br i1 %45, label %46, label %49

46:                                               ; preds = %42
  %47 = load ptr, ptr @stderr, align 8, !tbaa !16
  %48 = call i64 @fwrite(ptr nonnull @.str.24, i64 20, i64 1, ptr %47) #7
  br label %54

49:                                               ; preds = %42
  %50 = load i64, ptr %8, align 8, !tbaa !9
  %bcmp = call i32 @bcmp(ptr nonnull %9, ptr nonnull %7, i64 %50)
  %.not16 = icmp eq i32 %bcmp, 0
  br i1 %.not16, label %54, label %51

51:                                               ; preds = %49
  %52 = load ptr, ptr @stderr, align 8, !tbaa !16
  %53 = call i64 @fwrite(ptr nonnull @.str.25, i64 30, i64 1, ptr %52) #7
  br label %54

54:                                               ; preds = %49, %51, %23, %46, %39, %34, %28, %20, %15
  %.0 = phi ptr [ null, %15 ], [ %13, %28 ], [ null, %34 ], [ %32, %46 ], [ %32, %51 ], [ %32, %49 ], [ %32, %39 ], [ %13, %23 ], [ %13, %20 ]
  call void @EVP_PKEY_CTX_free(ptr noundef %.0) #6
  call void @llvm.lifetime.end.p0(i64 8, ptr nonnull %12) #6
  call void @llvm.lifetime.end.p0(i64 1568, ptr nonnull %11) #6
  call void @llvm.lifetime.end.p0(i64 8, ptr nonnull %10) #6
  call void @llvm.lifetime.end.p0(i64 32, ptr nonnull %9) #6
  call void @llvm.lifetime.end.p0(i64 8, ptr nonnull %8) #6
  call void @llvm.lifetime.end.p0(i64 32, ptr nonnull %7) #6
  ret void
}